; Function Attrs: mustprogress nofree norecurse nosync nounwind willreturn memory(none) uwtable
define range(i32 0, 2122219151) i32 @LZ4_compressBound(i32 noundef %0) local_unnamed_addr #0 {
  %2 = icmp ugt i32 %0, 2113929216
  br i1 %2, label %7, label %3

3:                                                ; preds = %1
  %4 = udiv i32 %0, 255
  %5 = add nuw nsw i32 %0, 16
  %6 = add nuw nsw i32 %5, %4
  br label %7

7:                                                ; preds = %1, %3
  %8 = phi i32 [ %6, %3 ], [ 0, %1 ]
  ret i32 %8
}